; ModuleID = 'source-C-CXX/29/2551.c'
source_filename = "source-C-CXX/29/2551.c"
target datalayout = "e-m:e-p270:32:32-p271:32:32-p272:64:64-i64:64-f80:128-n8:16:32:64-S128"
target triple = "x86_64-pc-linux-gnu"

@.str = private unnamed_addr constant [3 x i8] c"%d\00", align 1

; Function Attrs: nofree nounwind sspstrong uwtable
define dso_local i32 @main() local_unnamed_addr #0 {
  %1 = alloca i32, align 4
  %2 = bitcast i32* %1 to i8*
  call void @llvm.lifetime.start.p0i8(i64 4, i8* nonnull %2) #4
  %3 = call i32 (i8*, ...) @__isoc99_scanf(i8* getelementptr inbounds ([3 x i8], [3 x i8]* @.str, i64 0, i64 0), i32* nonnull %1)
  %4 = load i32, i32* %1, align 4, !tbaa !5
  br label %5

5:                                                ; preds = %22, %0
  %6 = phi i32 [ %24, %22 ], [ 0, %0 ]
  %7 = phi i32 [ %13, %22 ], [ 0, %0 ]
  %8 = call i32 @llvm.smax.i32(i32 %7, i32 %4)
  br label %9

9:                                                ; preds = %5, %12
  %10 = phi i32 [ %13, %12 ], [ %7, %5 ]
  %11 = icmp eq i32 %10, %8
  br i1 %11, label %25, label %12

12:                                               ; preds = %9
  %13 = add i32 %10, 1
  %14 = srem i32 %13, 7
  %15 = icmp eq i32 %14, 0
  %16 = add i32 %10, -69
  %17 = icmp ult i32 %16, 10
  %18 = select i1 %15, i1 true, i1 %17
  %19 = srem i32 %13, 10
  %20 = icmp eq i32 %19, 7
  %21 = select i1 %18, i1 true, i1 %20
  br i1 %21, label %9, label %22, !llvm.loop !9

22:                                               ; preds = %12
  %23 = mul nsw i32 %13, %13
  %24 = add nuw nsw i32 %23, %6
  br label %5, !llvm.loop !9

25:                                               ; preds = %9
  %26 = call i32 (i8*, ...) @printf(i8* nonnull dereferenceable(1) getelementptr inbounds ([3 x i8], [3 x i8]* @.str, i64 0, i64 0), i32 %6)
  call void @llvm.lifetime.end.p0i8(i64 4, i8* nonnull %2) #4
  ret i32 0
}

; Function Attrs: argmemonly mustprogress nofree nosync nounwind willreturn
declare void @llvm.lifetime.start.p0i8(i64 immarg, i8* nocapture) #1

; Function Attrs: nofree nounwind
declare noundef i32 @__isoc99_scanf(i8* nocapture noundef readonly, ...) local_unnamed_addr #2

; Function Attrs: nofree nounwind
declare noundef i32 @printf(i8* nocapture noundef readonly, ...) local_unnamed_addr #2

; Function Attrs: argmemonly mustprogress nofree nosync nounwind willreturn
declare void @llvm.lifetime.end.p0i8(i64 immarg, i8* nocapture) #1

; Function Attrs: nofree nosync nounwind readnone speculatable willreturn
declare i32 @llvm.smax.i32(i32, i32) #3


!llvm.module.flags = !{!0, !1, !2, !3}
!llvm.ident = !{!4}

!0 = !{i32 1, !"wchar_size", i32 4}
!1 = !{i32 7, !"PIC Level", i32 2}
!2 = !{i32 7, !"PIE Level", i32 2}
!3 = !{i32 7, !"uwtable", i32 1}
!4 = !{!"clang version 13.0.0"}
!5 = !{!6, !6, i64 0}
!6 = !{!"int", !7, i64 0}
!7 = !{!"omnipotent char", !8, i64 0}
!8 = !{!"Simple C/C++ TBAA"}
!9 = distinct !{!9, !10}
!10 = !{!"llvm.loop.mustprogress"}
